; Function Attrs: mustprogress uwtable
define dso_local void @_ZN3net21QuicClientSessionBase24OnPromiseHeadersCompleteEjjm(ptr noundef nonnull align 8 dereferenceable(2140) %this, i32 noundef %stream_id, i32 noundef %promised_stream_id, i64 noundef %frame_len) unnamed_addr #0 align 2 personality ptr @__gxx_personality_v0 {
entry:
  %ref.tmp = alloca %"class.std::__cxx11::basic_string", align 8
  %ref.tmp3 = alloca %"class.std::allocator.82", align 1
  %largest_promised_stream_id_ = getelementptr inbounds i8, ptr %this, i64 2136
  %0 = load i32, ptr %largest_promised_stream_id_, align 8
  %1 = freeze i32 %0
  %2 = add i32 %promised_stream_id, -1
  %or.cond.not = icmp ult i32 %2, %1
  br i1 %or.cond.not, label %if.then, label %if.end

if.then:                                          ; preds = %entry
  %connection_.i = getelementptr inbounds i8, ptr %this, i64 56
  %3 = load ptr, ptr %connection_.i, align 8
  call void @_ZNSaIcEC1Ev(ptr noundef nonnull align 1 dereferenceable(1) %ref.tmp3) #16
  %call.i6 = invoke noundef ptr @_ZNSt7__cxx1112basic_stringIcSt11char_traitsIcESaIcEE13_M_local_dataEv(ptr noundef nonnull align 8 dereferenceable(32) %ref.tmp)
          to label %call.i.noexc unwind label %lpad

call.i.noexc:                                     ; preds = %if.then
  invoke void @_ZNSt7__cxx1112basic_stringIcSt11char_traitsIcESaIcEE12_Alloc_hiderC1EPcRKS3_(ptr noundef nonnull align 8 dereferenceable(8) %ref.tmp, ptr noundef %call.i6, ptr noundef nonnull align 1 dereferenceable(1) %ref.tmp3)
          to label %.noexc unwind label %lpad

.noexc:                                           ; preds = %call.i.noexc
  invoke void @_ZNSt7__cxx1112basic_stringIcSt11char_traitsIcESaIcEE12_M_constructIPKcEEvT_S8_St20forward_iterator_tag(ptr noundef nonnull align 8 dereferenceable(32) %ref.tmp, ptr noundef nonnull @.str, ptr noundef nonnull getelementptr inbounds ([68 x i8], ptr @.str, i64 0, i64 67))
          to label %invoke.cont unwind label %lpad.i

lpad.i:                                           ; preds = %.noexc
  %4 = landingpad { ptr, i32 }
          cleanup
  call void @_ZNSaIcED2Ev(ptr noundef nonnull align 1 dereferenceable(1) %ref.tmp) #16
  br label %ehcleanup

invoke.cont:                                      ; preds = %.noexc
  %vtable = load ptr, ptr %3, align 8
  %vfn = getelementptr inbounds i8, ptr %vtable, i64 256
  %5 = load ptr, ptr %vfn, align 8
  invoke void %5(ptr noundef nonnull align 8 dereferenceable(3372) %3, i32 noundef 17, ptr noundef nonnull align 8 dereferenceable(32) %ref.tmp, i32 noundef 1)
          to label %invoke.cont5 unwind label %lpad4

invoke.cont5:                                     ; preds = %invoke.cont
  call void @_ZNSt7__cxx1112basic_stringIcSt11char_traitsIcESaIcEED1Ev(ptr noundef nonnull align 8 dereferenceable(32) %ref.tmp) #16
  call void @_ZNSaIcED1Ev(ptr noundef nonnull align 1 dereferenceable(1) %ref.tmp3) #16
  br label %return

lpad:                                             ; preds = %call.i.noexc, %if.then
  %6 = landingpad { ptr, i32 }
          cleanup
  br label %ehcleanup

lpad4:                                            ; preds = %invoke.cont
  %7 = landingpad { ptr, i32 }
          cleanup
  call void @_ZNSt7__cxx1112basic_stringIcSt11char_traitsIcESaIcEED1Ev(ptr noundef nonnull align 8 dereferenceable(32) %ref.tmp) #16
  br label %ehcleanup

ehcleanup:                                        ; preds = %lpad, %lpad.i, %lpad4
  %.pn = phi { ptr, i32 } [ %7, %lpad4 ], [ %6, %lpad ], [ %4, %lpad.i ]
  call void @_ZNSaIcED1Ev(ptr noundef nonnull align 1 dereferenceable(1) %ref.tmp3) #16
  resume { ptr, i32 } %.pn

if.end:                                           ; preds = %entry
  store i32 %promised_stream_id, ptr %largest_promised_stream_id_, align 8
  %call7 = tail call noundef ptr @_ZN3net15QuicSpdySession17GetSpdyDataStreamEj(ptr noundef nonnull align 8 dereferenceable(2057) %this, i32 noundef %stream_id)
  %tobool.not = icmp eq ptr %call7, null
  br i1 %tobool.not, label %return, label %if.end9

if.end9:                                          ; preds = %if.end
  %vtable10 = load ptr, ptr %call7, align 8
  %vfn11 = getelementptr inbounds i8, ptr %vtable10, i64 160
  %8 = load ptr, ptr %vfn11, align 8
  tail call void %8(ptr noundef nonnull align 8 dereferenceable(664) %call7, i32 noundef %promised_stream_id, i64 noundef %frame_len)
  br label %return

return:                                           ; preds = %if.end, %if.end9, %invoke.cont5
  ret void
}